target datalayout = "e-m:e-p270:32:32-p271:32:32-p272:64:64-i64:64-i128:128-f80:128-n8:16:32:64-S128"
target triple = "x86_64-pc-linux-gnu"

%"class.SystemProcessInterface::SystemProcesses::ProcessIterator" = type <{ ptr, ptr, i8, [4096 x i8], [4096 x i8], [7 x i8] }>
%class.SystemProcess = type { ptr, i32, ptr, ptr, ptr, ptr }
%"class.SystemProcessInterface::SystemProcesses" = type { ptr }

@_ZTV13SystemProcess = linkonce_odr hidden unnamed_addr constant { [4 x ptr] } { [4 x ptr] [ptr null, ptr null, ptr @_ZN13SystemProcessD2Ev, ptr @_ZN13SystemProcessD0Ev] }, comdat, align 8

; Function Attrs: mustprogress nounwind uwtable
define linkonce_odr hidden void @_ZN13SystemProcess8set_nextEPS_(ptr noundef nonnull align 8 dereferenceable(48) %0, ptr noundef %1) #1 comdat align 2 {
  %3 = alloca ptr, align 8
  %4 = alloca ptr, align 8
  store ptr %0, ptr %3, align 8
  store ptr %1, ptr %4, align 8
  %5 = load ptr, ptr %3, align 8
  %6 = load ptr, ptr %4, align 8
  %7 = getelementptr inbounds %class.SystemProcess, ptr %5, i32 0, i32 5
  store ptr %6, ptr %7, align 8
  ret void
}

; Function Attrs: mustprogress nounwind uwtable
define linkonce_odr hidden void @_ZN13SystemProcessC2Ev(ptr noundef nonnull align 8 dereferenceable(48) %0) unnamed_addr #1 comdat align 2 {
  %2 = alloca ptr, align 8
  store ptr %0, ptr %2, align 8
  %3 = load ptr, ptr %2, align 8
  store ptr getelementptr inbounds inrange(-16, 16) ({ [4 x ptr] }, ptr @_ZTV13SystemProcess, i32 0, i32 0, i32 2), ptr %3, align 8
  %4 = getelementptr inbounds %class.SystemProcess, ptr %3, i32 0, i32 1
  store i32 0, ptr %4, align 8
  %5 = getelementptr inbounds %class.SystemProcess, ptr %3, i32 0, i32 2
  store ptr null, ptr %5, align 8
  %6 = getelementptr inbounds %class.SystemProcess, ptr %3, i32 0, i32 3
  store ptr null, ptr %6, align 8
  %7 = getelementptr inbounds %class.SystemProcess, ptr %3, i32 0, i32 4
  store ptr null, ptr %7, align 8
  %8 = getelementptr inbounds %class.SystemProcess, ptr %3, i32 0, i32 5
  store ptr null, ptr %8, align 8
  ret void
}

; Function Attrs: mustprogress nounwind uwtable
define linkonce_odr hidden noundef zeroext i1 @_ZNK22SystemProcessInterface15SystemProcesses15ProcessIterator8is_validEv(ptr noundef nonnull align 8 dereferenceable(8209) %0) #1 comdat align 2 {
  %2 = alloca ptr, align 8
  store ptr %0, ptr %2, align 8
  %3 = load ptr, ptr %2, align 8
  %4 = getelementptr inbounds %"class.SystemProcessInterface::SystemProcesses::ProcessIterator", ptr %3, i32 0, i32 2
  %5 = load i8, ptr %4, align 8
  %6 = trunc i8 %5 to i1
  ret i1 %6
}

; Function Attrs: mustprogress nounwind uwtable
define hidden noundef i32 @_ZNK22SystemProcessInterface15SystemProcesses16system_processesEPP13SystemProcessPi(ptr noundef nonnull align 8 dereferenceable(8) %0, ptr noundef %1, ptr noundef %2) #1 align 2 {
  %4 = alloca i64, align 8
  %5 = alloca i8, align 1
  %6 = alloca i64, align 8
  %7 = alloca ptr, align 8
  %8 = alloca ptr, align 8
  %9 = alloca ptr, align 8
  %10 = alloca ptr, align 8
  store ptr %0, ptr %7, align 8
  store ptr %1, ptr %8, align 8
  store ptr %2, ptr %9, align 8
  %11 = load ptr, ptr %7, align 8
  %12 = load ptr, ptr %9, align 8
  store i32 0, ptr %12, align 4
  %13 = load ptr, ptr %8, align 8
  store ptr null, ptr %13, align 8
  br label %14

14:                                               ; preds = %34, %3
  %15 = getelementptr inbounds %"class.SystemProcessInterface::SystemProcesses", ptr %11, i32 0, i32 0
  %16 = load ptr, ptr %15, align 8
  %17 = call noundef zeroext i1 @_ZNK22SystemProcessInterface15SystemProcesses15ProcessIterator8is_validEv(ptr noundef nonnull align 8 dereferenceable(8209) %16)
  br i1 %17, label %18, label %43

18:                                               ; preds = %14
  store i64 48, ptr %6, align 8
  %19 = load i64, ptr %6, align 8
  store i64 %19, ptr %4, align 8
  store i8 9, ptr %5, align 1
  %20 = load i64, ptr %4, align 8
  %21 = load i8, ptr %5, align 1
  %22 = call noundef ptr @_Z12AllocateHeapm8MEMFLAGSN17AllocFailStrategy13AllocFailEnumE(i64 noundef %20, i8 noundef zeroext %21, i32 noundef 0) #8
  call void @_ZN13SystemProcessC2Ev(ptr noundef nonnull align 8 dereferenceable(48) %22)
  store ptr %22, ptr %10, align 8
  %23 = getelementptr inbounds %"class.SystemProcessInterface::SystemProcesses", ptr %11, i32 0, i32 0
  %24 = load ptr, ptr %23, align 8
  %25 = load ptr, ptr %10, align 8
  %26 = call noundef i32 @_ZN22SystemProcessInterface15SystemProcesses15ProcessIterator7currentEP13SystemProcess(ptr noundef nonnull align 8 dereferenceable(8209) %24, ptr noundef %25)
  %27 = load ptr, ptr %8, align 8
  %28 = load ptr, ptr %27, align 8
  %29 = icmp ne ptr %28, null
  br i1 %29, label %30, label %34

30:                                               ; preds = %18
  %31 = load ptr, ptr %10, align 8
  %32 = load ptr, ptr %8, align 8
  %33 = load ptr, ptr %32, align 8
  call void @_ZN13SystemProcess8set_nextEPS_(ptr noundef nonnull align 8 dereferenceable(48) %31, ptr noundef %33)
  br label %34

34:                                               ; preds = %30, %18
  %35 = load ptr, ptr %10, align 8
  %36 = load ptr, ptr %8, align 8
  store ptr %35, ptr %36, align 8
  %37 = load ptr, ptr %9, align 8
  %38 = load i32, ptr %37, align 4
  %39 = add nsw i32 %38, 1
  store i32 %39, ptr %37, align 4
  %40 = getelementptr inbounds %"class.SystemProcessInterface::SystemProcesses", ptr %11, i32 0, i32 0
  %41 = load ptr, ptr %40, align 8
  %42 = call noundef i32 @_ZN22SystemProcessInterface15SystemProcesses15ProcessIterator12next_processEv(ptr noundef nonnull align 8 dereferenceable(8209) %41)
  br label %14, !llvm.loop !11

43:                                               ; preds = %14
  ret i32 0
}