; Function Attrs: mustprogress nounwind uwtable
define hidden noundef i32 @_ZNK22SystemProcessInterface15SystemProcesses16system_processesEPP13SystemProcessPi(ptr nocapture noundef nonnull readonly align 8 dereferenceable(8) %0, ptr nocapture noundef %1, ptr nocapture noundef %2) local_unnamed_addr #0 align 2 {
  store i32 0, ptr %2, align 4
  store ptr null, ptr %1, align 8
  %4 = load ptr, ptr %0, align 8
  %5 = getelementptr inbounds i8, ptr %4, i64 16
  %6 = load i8, ptr %5, align 8
  %7 = trunc i8 %6 to i1
  br i1 %7, label %.lr.ph, label %._crit_edge

.lr.ph:                                           ; preds = %3, %16
  %8 = tail call noundef ptr @_Z12AllocateHeapm8MEMFLAGSN17AllocFailStrategy13AllocFailEnumE(i64 noundef 48, i8 noundef zeroext 9, i32 noundef 0) #18
  store ptr getelementptr inbounds inrange(-16, 16) (i8, ptr @_ZTV13SystemProcess, i64 16), ptr %8, align 8
  %9 = getelementptr inbounds i8, ptr %8, i64 8
  store i32 0, ptr %9, align 8
  %10 = getelementptr inbounds i8, ptr %8, i64 16
  tail call void @llvm.memset.p0.i64(ptr noundef nonnull align 8 dereferenceable(32) %10, i8 0, i64 32, i1 false)
  %11 = load ptr, ptr %0, align 8
  %12 = tail call noundef i32 @_ZN22SystemProcessInterface15SystemProcesses15ProcessIterator7currentEP13SystemProcess(ptr noundef nonnull align 8 dereferenceable(8209) %11, ptr noundef nonnull %8)
  %13 = load ptr, ptr %1, align 8
  %.not = icmp eq ptr %13, null
  br i1 %.not, label %16, label %14

14:                                               ; preds = %.lr.ph
  %15 = getelementptr inbounds i8, ptr %8, i64 40
  store ptr %13, ptr %15, align 8
  br label %16

16:                                               ; preds = %14, %.lr.ph
  store ptr %8, ptr %1, align 8
  %17 = load i32, ptr %2, align 4
  %18 = add nsw i32 %17, 1
  store i32 %18, ptr %2, align 4
  %19 = load ptr, ptr %0, align 8
  %20 = tail call noundef i32 @_ZN22SystemProcessInterface15SystemProcesses15ProcessIterator12next_processEv(ptr noundef nonnull align 8 dereferenceable(8209) %19)
  %21 = load ptr, ptr %0, align 8
  %22 = getelementptr inbounds i8, ptr %21, i64 16
  %23 = load i8, ptr %22, align 8
  %24 = trunc i8 %23 to i1
  br i1 %24, label %.lr.ph, label %._crit_edge, !llvm.loop !11

._crit_edge:                                      ; preds = %16, %3
  ret i32 0
}